; Function Attrs: nounwind uwtable
define i32 @avcodec_encode_subtitle(ptr noundef %0, ptr noundef %1, i32 noundef %2, ptr noundef %3) local_unnamed_addr #0 {
  %5 = getelementptr inbounds nuw i8, ptr %3, i64 4
  %6 = load i32, ptr %5, align 4, !tbaa !42
  %.not = icmp eq i32 %6, 0
  br i1 %.not, label %8, label %7

7:                                                ; preds = %4
  tail call void (ptr, i32, ptr, ...) @av_log(ptr noundef %0, i32 noundef 16, ptr noundef nonnull @.str.10) #8
  br label %17

8:                                                ; preds = %4
  %9 = getelementptr inbounds nuw i8, ptr %0, i64 16
  %10 = load ptr, ptr %9, align 8, !tbaa !46
  %11 = getelementptr inbounds nuw i8, ptr %10, i64 136
  %12 = load ptr, ptr %11, align 8, !tbaa !47
  %13 = tail call i32 %12(ptr noundef %0, ptr noundef %1, i32 noundef %2, ptr noundef nonnull %3) #8
  %14 = getelementptr inbounds nuw i8, ptr %0, i64 824
  %15 = load i64, ptr %14, align 8, !tbaa !48
  %16 = add nsw i64 %15, 1
  store i64 %16, ptr %14, align 8, !tbaa !48
  br label %17

17:                                               ; preds = %8, %7
  %.0 = phi i32 [ -1, %7 ], [ %13, %8 ]
  ret i32 %.0
}